target datalayout = "e-m:e-p270:32:32-p271:32:32-p272:64:64-i64:64-i128:128-f80:128-n8:16:32:64-S128"
target triple = "x86_64-pc-linux-gnu"

%class.Register = type { i32 }
%class.DispatchTable = type { [10 x [256 x ptr]] }
%class.AbstractInterpreterGenerator = type { ptr }
%class.AbstractAssembler = type { ptr, ptr, ptr }
%class.CodeSection = type { ptr, ptr, ptr, ptr, ptr, ptr, ptr, ptr, i8, i8, i32, i8, ptr }

@.str = private unnamed_addr constant [57 x i8] c"src/hotspot/cpu/x86/templateInterpreterGenerator_x86.cpp\00", align 1
@_ZL5noreg = internal constant %class.Register { i32 -1 }, align 4
@_ZN19TemplateInterpreter13_normal_tableE = external global %class.DispatchTable, align 8
@PrintInterpreter = external global i8, align 1

; Function Attrs: mustprogress nounwind uwtable
define linkonce_odr hidden noundef ptr @_ZNK11CodeSection3endEv(ptr noundef nonnull align 8 dereferenceable(88) %0) #1 comdat align 2 {
  %2 = alloca ptr, align 8
  store ptr %0, ptr %2, align 8
  %3 = load ptr, ptr %2, align 8
  %4 = getelementptr inbounds %class.CodeSection, ptr %3, i32 0, i32 2
  %5 = load ptr, ptr %4, align 8
  ret ptr %5
}

; Function Attrs: mustprogress nounwind uwtable
define linkonce_odr hidden noundef ptr @_ZNK17AbstractAssembler12code_sectionEv(ptr noundef nonnull align 8 dereferenceable(24) %0) #1 comdat align 2 {
  %2 = alloca ptr, align 8
  store ptr %0, ptr %2, align 8
  %3 = load ptr, ptr %2, align 8
  %4 = getelementptr inbounds %class.AbstractAssembler, ptr %3, i32 0, i32 1
  %5 = load ptr, ptr %4, align 8
  ret ptr %5
}

; Function Attrs: mustprogress nounwind uwtable
define linkonce_odr hidden noundef ptr @_ZN13DispatchTable9table_forE8TosState(ptr noundef nonnull align 8 dereferenceable(20480) %0, i32 noundef %1) #1 comdat align 2 {
  %3 = alloca ptr, align 8
  %4 = alloca i32, align 4
  store ptr %0, ptr %3, align 8
  store i32 %1, ptr %4, align 4
  %5 = load ptr, ptr %3, align 8
  %6 = getelementptr inbounds %class.DispatchTable, ptr %5, i32 0, i32 0
  %7 = load i32, ptr %4, align 4
  %8 = zext i32 %7 to i64
  %9 = getelementptr inbounds [10 x [256 x ptr]], ptr %6, i64 0, i64 %8
  %10 = getelementptr inbounds [256 x ptr], ptr %9, i64 0, i64 0
  ret ptr %10
}

; Function Attrs: mustprogress nounwind uwtable
define linkonce_odr hidden noundef ptr @_ZNK17AbstractAssembler2pcEv(ptr noundef nonnull align 8 dereferenceable(24) %0) #1 comdat align 2 {
  %2 = alloca ptr, align 8
  store ptr %0, ptr %2, align 8
  %3 = load ptr, ptr %2, align 8
  %4 = call noundef ptr @_ZNK17AbstractAssembler12code_sectionEv(ptr noundef nonnull align 8 dereferenceable(24) %3)
  %5 = call noundef ptr @_ZNK11CodeSection3endEv(ptr noundef nonnull align 8 dereferenceable(88) %4)
  ret ptr %5
}

; Function Attrs: mustprogress nounwind uwtable
define linkonce_odr hidden noundef ptr @_ZN12Disassembler4hookI25InterpreterMacroAssemblerEEPT_PKciS3_(ptr noundef %0, i32 noundef %1, ptr noundef %2) #1 comdat align 2 {
  %4 = alloca ptr, align 8
  %5 = alloca i32, align 4
  %6 = alloca ptr, align 8
  store ptr %0, ptr %4, align 8
  store i32 %1, ptr %5, align 4
  store ptr %2, ptr %6, align 8
  %7 = load i8, ptr @PrintInterpreter, align 1
  %8 = trunc i8 %7 to i1
  br i1 %8, label %9, label %13

9:                                                ; preds = %3
  %10 = load ptr, ptr %4, align 8
  %11 = load i32, ptr %5, align 4
  %12 = load ptr, ptr %6, align 8
  call void @_ZN12Disassembler5_hookEPKciP14MacroAssembler(ptr noundef %10, i32 noundef %11, ptr noundef %12)
  br label %13

13:                                               ; preds = %9, %3
  %14 = load ptr, ptr %6, align 8
  ret ptr %14
}

; Function Attrs: mustprogress nounwind uwtable
define hidden noundef ptr @_ZN28TemplateInterpreterGenerator25generate_safept_entry_forE8TosStatePh(ptr noundef nonnull align 8 dereferenceable(24) %0, i32 noundef %1, ptr noundef %2) #1 align 2 {
  %4 = alloca ptr, align 8
  %5 = alloca i32, align 4
  %6 = alloca ptr, align 8
  %7 = alloca ptr, align 8
  %8 = alloca %class.Register, align 4
  store ptr %0, ptr %4, align 8
  store i32 %1, ptr %5, align 4
  store ptr %2, ptr %6, align 8
  %9 = load ptr, ptr %4, align 8
  %10 = getelementptr inbounds %class.AbstractInterpreterGenerator, ptr %9, i32 0, i32 0
  %11 = load ptr, ptr %10, align 8
  %12 = call noundef ptr @_ZN12Disassembler4hookI25InterpreterMacroAssemblerEEPT_PKciS3_(ptr noundef @.str, i32 noundef 379, ptr noundef %11)
  %13 = call noundef ptr @_ZNK17AbstractAssembler2pcEv(ptr noundef nonnull align 8 dereferenceable(24) %12)
  store ptr %13, ptr %7, align 8
  %14 = getelementptr inbounds %class.AbstractInterpreterGenerator, ptr %9, i32 0, i32 0
  %15 = load ptr, ptr %14, align 8
  %16 = call noundef ptr @_ZN12Disassembler4hookI25InterpreterMacroAssemblerEEPT_PKciS3_(ptr noundef @.str, i32 noundef 381, ptr noundef %15)
  %17 = load i32, ptr %5, align 4
  call void @_ZN25InterpreterMacroAssembler4pushE8TosState(ptr noundef nonnull align 8 dereferenceable(48) %16, i32 noundef %17)
  %18 = getelementptr inbounds %class.AbstractInterpreterGenerator, ptr %9, i32 0, i32 0
  %19 = load ptr, ptr %18, align 8
  %20 = call noundef ptr @_ZN12Disassembler4hookI25InterpreterMacroAssemblerEEPT_PKciS3_(ptr noundef @.str, i32 noundef 382, ptr noundef %19)
  call void @_ZN14MacroAssembler18push_cont_fastpathEv(ptr noundef nonnull align 8 dereferenceable(40) %20)
  %21 = getelementptr inbounds %class.AbstractInterpreterGenerator, ptr %9, i32 0, i32 0
  %22 = load ptr, ptr %21, align 8
  %23 = call noundef ptr @_ZN12Disassembler4hookI25InterpreterMacroAssemblerEEPT_PKciS3_(ptr noundef @.str, i32 noundef 383, ptr noundef %22)
  call void @llvm.memcpy.p0.p0.i64(ptr align 4 %8, ptr align 4 @_ZL5noreg, i64 4, i1 false)
  %24 = load ptr, ptr %6, align 8
  %25 = getelementptr inbounds %class.Register, ptr %8, i32 0, i32 0
  %26 = load i32, ptr %25, align 4
  call void @_ZN14MacroAssembler7call_VME8RegisterPhb(ptr noundef nonnull align 8 dereferenceable(40) %23, i32 %26, ptr noundef %24, i1 noundef zeroext true)
  %27 = getelementptr inbounds %class.AbstractInterpreterGenerator, ptr %9, i32 0, i32 0
  %28 = load ptr, ptr %27, align 8
  %29 = call noundef ptr @_ZN12Disassembler4hookI25InterpreterMacroAssemblerEEPT_PKciS3_(ptr noundef @.str, i32 noundef 384, ptr noundef %28)
  call void @_ZN14MacroAssembler17pop_cont_fastpathEv(ptr noundef nonnull align 8 dereferenceable(40) %29)
  %30 = getelementptr inbounds %class.AbstractInterpreterGenerator, ptr %9, i32 0, i32 0
  %31 = load ptr, ptr %30, align 8
  %32 = call noundef ptr @_ZN12Disassembler4hookI25InterpreterMacroAssemblerEEPT_PKciS3_(ptr noundef @.str, i32 noundef 386, ptr noundef %31)
  %33 = call noundef ptr @_ZN13DispatchTable9table_forE8TosState(ptr noundef nonnull align 8 dereferenceable(20480) @_ZN19TemplateInterpreter13_normal_tableE, i32 noundef 9)
  call void @_ZN25InterpreterMacroAssembler12dispatch_viaE8TosStatePPh(ptr noundef nonnull align 8 dereferenceable(48) %32, i32 noundef 9, ptr noundef %33)
  %34 = load ptr, ptr %7, align 8
  ret ptr %34
}