; Function Attrs: mustprogress nounwind uwtable
define hidden noundef ptr @_ZN28TemplateInterpreterGenerator25generate_safept_entry_forE8TosStatePh(ptr nocapture noundef nonnull readonly align 8 dereferenceable(24) %0, i32 noundef %1, ptr noundef %2) local_unnamed_addr #0 align 2 {
  %4 = load ptr, ptr %0, align 8
  %5 = load i8, ptr @PrintInterpreter, align 1
  %6 = trunc i8 %5 to i1
  br i1 %6, label %7, label %_ZN12Disassembler4hookI25InterpreterMacroAssemblerEEPT_PKciS3_.exit

7:                                                ; preds = %3
  tail call void @_ZN12Disassembler5_hookEPKciP14MacroAssembler(ptr noundef nonnull @.str, i32 noundef 379, ptr noundef %4) #7
  %.pre = load ptr, ptr %0, align 8
  %.pre8 = load i8, ptr @PrintInterpreter, align 1
  br label %_ZN12Disassembler4hookI25InterpreterMacroAssemblerEEPT_PKciS3_.exit

_ZN12Disassembler4hookI25InterpreterMacroAssemblerEEPT_PKciS3_.exit: ; preds = %3, %7
  %8 = phi i8 [ %5, %3 ], [ %.pre8, %7 ]
  %9 = phi ptr [ %4, %3 ], [ %.pre, %7 ]
  %10 = getelementptr inbounds i8, ptr %4, i64 8
  %11 = load ptr, ptr %10, align 8
  %12 = getelementptr inbounds i8, ptr %11, i64 16
  %13 = load ptr, ptr %12, align 8
  %14 = trunc i8 %8 to i1
  br i1 %14, label %15, label %_ZN12Disassembler4hookI25InterpreterMacroAssemblerEEPT_PKciS3_.exit3

15:                                               ; preds = %_ZN12Disassembler4hookI25InterpreterMacroAssemblerEEPT_PKciS3_.exit
  tail call void @_ZN12Disassembler5_hookEPKciP14MacroAssembler(ptr noundef nonnull @.str, i32 noundef 381, ptr noundef %9) #7
  br label %_ZN12Disassembler4hookI25InterpreterMacroAssemblerEEPT_PKciS3_.exit3

_ZN12Disassembler4hookI25InterpreterMacroAssemblerEEPT_PKciS3_.exit3: ; preds = %_ZN12Disassembler4hookI25InterpreterMacroAssemblerEEPT_PKciS3_.exit, %15
  tail call void @_ZN25InterpreterMacroAssembler4pushE8TosState(ptr noundef nonnull align 8 dereferenceable(48) %9, i32 noundef %1) #7
  %16 = load ptr, ptr %0, align 8
  %17 = load i8, ptr @PrintInterpreter, align 1
  %18 = trunc i8 %17 to i1
  br i1 %18, label %19, label %_ZN12Disassembler4hookI25InterpreterMacroAssemblerEEPT_PKciS3_.exit4

19:                                               ; preds = %_ZN12Disassembler4hookI25InterpreterMacroAssemblerEEPT_PKciS3_.exit3
  tail call void @_ZN12Disassembler5_hookEPKciP14MacroAssembler(ptr noundef nonnull @.str, i32 noundef 382, ptr noundef %16) #7
  br label %_ZN12Disassembler4hookI25InterpreterMacroAssemblerEEPT_PKciS3_.exit4

_ZN12Disassembler4hookI25InterpreterMacroAssemblerEEPT_PKciS3_.exit4: ; preds = %_ZN12Disassembler4hookI25InterpreterMacroAssemblerEEPT_PKciS3_.exit3, %19
  tail call void @_ZN14MacroAssembler18push_cont_fastpathEv(ptr noundef nonnull align 8 dereferenceable(40) %16) #7
  %20 = load ptr, ptr %0, align 8
  %21 = load i8, ptr @PrintInterpreter, align 1
  %22 = trunc i8 %21 to i1
  br i1 %22, label %23, label %_ZN12Disassembler4hookI25InterpreterMacroAssemblerEEPT_PKciS3_.exit5

23:                                               ; preds = %_ZN12Disassembler4hookI25InterpreterMacroAssemblerEEPT_PKciS3_.exit4
  tail call void @_ZN12Disassembler5_hookEPKciP14MacroAssembler(ptr noundef nonnull @.str, i32 noundef 383, ptr noundef %20) #7
  br label %_ZN12Disassembler4hookI25InterpreterMacroAssemblerEEPT_PKciS3_.exit5

_ZN12Disassembler4hookI25InterpreterMacroAssemblerEEPT_PKciS3_.exit5: ; preds = %_ZN12Disassembler4hookI25InterpreterMacroAssemblerEEPT_PKciS3_.exit4, %23
  tail call void @_ZN14MacroAssembler7call_VME8RegisterPhb(ptr noundef nonnull align 8 dereferenceable(40) %20, i32 -1, ptr noundef %2, i1 noundef zeroext true) #7
  %24 = load ptr, ptr %0, align 8
  %25 = load i8, ptr @PrintInterpreter, align 1
  %26 = trunc i8 %25 to i1
  br i1 %26, label %27, label %_ZN12Disassembler4hookI25InterpreterMacroAssemblerEEPT_PKciS3_.exit6

27:                                               ; preds = %_ZN12Disassembler4hookI25InterpreterMacroAssemblerEEPT_PKciS3_.exit5
  tail call void @_ZN12Disassembler5_hookEPKciP14MacroAssembler(ptr noundef nonnull @.str, i32 noundef 384, ptr noundef %24) #7
  br label %_ZN12Disassembler4hookI25InterpreterMacroAssemblerEEPT_PKciS3_.exit6

_ZN12Disassembler4hookI25InterpreterMacroAssemblerEEPT_PKciS3_.exit6: ; preds = %_ZN12Disassembler4hookI25InterpreterMacroAssemblerEEPT_PKciS3_.exit5, %27
  tail call void @_ZN14MacroAssembler17pop_cont_fastpathEv(ptr noundef nonnull align 8 dereferenceable(40) %24) #7
  %28 = load ptr, ptr %0, align 8
  %29 = load i8, ptr @PrintInterpreter, align 1
  %30 = trunc i8 %29 to i1
  br i1 %30, label %31, label %_ZN12Disassembler4hookI25InterpreterMacroAssemblerEEPT_PKciS3_.exit7

31:                                               ; preds = %_ZN12Disassembler4hookI25InterpreterMacroAssemblerEEPT_PKciS3_.exit6
  tail call void @_ZN12Disassembler5_hookEPKciP14MacroAssembler(ptr noundef nonnull @.str, i32 noundef 386, ptr noundef %28) #7
  br label %_ZN12Disassembler4hookI25InterpreterMacroAssemblerEEPT_PKciS3_.exit7

_ZN12Disassembler4hookI25InterpreterMacroAssemblerEEPT_PKciS3_.exit7: ; preds = %_ZN12Disassembler4hookI25InterpreterMacroAssemblerEEPT_PKciS3_.exit6, %31
  tail call void @_ZN25InterpreterMacroAssembler12dispatch_viaE8TosStatePPh(ptr noundef nonnull align 8 dereferenceable(48) %28, i32 noundef 9, ptr noundef nonnull getelementptr inbounds (i8, ptr @_ZN19TemplateInterpreter13_normal_tableE, i64 18432)) #7
  ret ptr %13
}